0000000000009120 T _ZN3aec10copy_asyncEmPvm16aecCopyDirectionP15aecStreamOpaque
0000000000009590 T _ZN3aec10error_nameE8aecError
0000000000008dd0 T _ZN3aec10submit_dmaEmPvm16aecCopyDirectionmht
0000000000009d00 T _ZN3aec11event_queryEP14aecEventOpaque
0000000000007840 T _ZN3aec11free_deviceEm
000000000000faf0 T _ZN3aec11stream_syncEP15aecStreamOpaque
000000000000b320 T _ZN3aec12event_createEPP14aecEventOpaque
0000000000009f10 T _ZN3aec12event_recordEP14aecEventOpaqueP15aecStreamOpaque
000000000000ace0 T _ZN3aec13event_destroyEP14aecEventOpaque
000000000000eca0 T _ZN3aec13host_registerEPvm
0000000000010510 T _ZN3aec13stream_createEPP15aecStreamOpaque
0000000000009540 T _ZN3aec14get_last_errorEv
0000000000010160 T _ZN3aec14stream_destroyEP15aecStreamOpaque
0000000000007620 T _ZN3aec15AllocationLease7releaseEv
00000000000075f0 T _ZN3aec15AllocationLeaseC1EOS0_
00000000000075c0 T _ZN3aec15AllocationLeaseC1ESt10shared_ptrINS_16AllocationRecordEE
00000000000075f0 T _ZN3aec15AllocationLeaseC2EOS0_
00000000000075c0 T _ZN3aec15AllocationLeaseC2ESt10shared_ptrINS_16AllocationRecordEE
0000000000007700 T _ZN3aec15AllocationLeaseD1Ev
0000000000007700 T _ZN3aec15AllocationLeaseD2Ev
0000000000007790 T _ZN3aec15AllocationLeaseaSEOS0_
0000000000008520 T _ZN3aec15allocate_deviceEPmm
000000000000dfd0 T _ZN3aec15host_unregisterEPv
0000000000009570 T _ZN3aec15peek_last_errorEv
000000000000ddb0 T _ZN3aec17RegistrationLease7releaseEv
000000000000dd80 T _ZN3aec17RegistrationLeaseC1EOS0_
000000000000dd50 T _ZN3aec17RegistrationLeaseC1ESt10shared_ptrINS_18RegistrationRecordEE
000000000000dd80 T _ZN3aec17RegistrationLeaseC2EOS0_
000000000000dd50 T _ZN3aec17RegistrationLeaseC2ESt10shared_ptrINS_18RegistrationRecordEE
000000000000de90 T _ZN3aec17RegistrationLeaseD1Ev
000000000000de90 T _ZN3aec17RegistrationLeaseD2Ev
000000000000df20 T _ZN3aec17RegistrationLeaseaSEOS0_
000000000000bb10 T _ZN3aec17build_isa_commandEjjj7aecDim3S0_PKhjR16aecDeviceCommand
000000000000b0f0 T _ZN3aec17event_synchronizeEP14aecEventOpaque
0000000000009650 T _ZN3aec17map_device_statusE15aecDeviceStatus
00000000000082d0 T _ZN3aec19acquire_device_spanEmmRNS_15AllocationLeaseE
000000000000fc70 T _ZN3aec19enqueue_stream_workEP15aecStreamOpaqueSt8functionIF8aecErrormEE
000000000000a650 T _ZN3aec20event_elapsed_cyclesEP14aecEventOpaqueS1_Pm
000000000000ea50 T _ZN3aec23acquire_registered_spanEPvmRNS_17RegistrationLeaseERb
0000000000008c80 T _ZN3aec30submit_and_validate_completionER16aecDeviceCommandP19aecDeviceCompletion
000000000000cbf0 T _ZN3aec3dotEmmmmP15aecStreamOpaque
000000000000c8e0 T _ZN3aec4axpyEmmmfP15aecStreamOpaque
000000000000cfa0 T _ZN3aec4nrm2EmmmP15aecStreamOpaque
0000000000009510 T _ZN3aec6finishE8aecError
000000000000bfb0 T _ZN3aec6launchE11aecKernelId7aecDim3S1_PKvmP15aecStreamOpaque
000000000000d560 T _ZN3aec6matmulEmmmjjj11aecDataTypeP15aecStreamOpaque
0000000000009100 T _ZN3aec8copy_d2hEPvmm
00000000000090f0 T _ZN3aec8copy_h2dEmPKvm
000000000000b850 W _ZNSt11unique_lockISt5mutexE6unlockEv
00000000000094e0 W _ZNSt14_Function_baseD1Ev
00000000000094e0 W _ZNSt14_Function_baseD2Ev
00000000000089c0 W _ZNSt16_Sp_counted_baseILN9__gnu_cxx12_Lock_policyE2EE10_M_releaseEv
0000000000008970 W _ZNSt16_Sp_counted_baseILN9__gnu_cxx12_Lock_policyE2EE24_M_release_last_use_coldEv
0000000000008870 W _ZNSt23_Sp_counted_ptr_inplaceIN3aec16AllocationRecordESaIvELN9__gnu_cxx12_Lock_policyE2EE10_M_destroyEv
0000000000008850 W _ZNSt23_Sp_counted_ptr_inplaceIN3aec16AllocationRecordESaIvELN9__gnu_cxx12_Lock_policyE2EE10_M_disposeEv
0000000000008920 W _ZNSt23_Sp_counted_ptr_inplaceIN3aec16AllocationRecordESaIvELN9__gnu_cxx12_Lock_policyE2EE14_M_get_deleterERKSt9type_info
0000000000008860 W _ZNSt23_Sp_counted_ptr_inplaceIN3aec16AllocationRecordESaIvELN9__gnu_cxx12_Lock_policyE2EED0Ev
0000000000008840 W _ZNSt23_Sp_counted_ptr_inplaceIN3aec16AllocationRecordESaIvELN9__gnu_cxx12_Lock_policyE2EED1Ev
0000000000008840 W _ZNSt23_Sp_counted_ptr_inplaceIN3aec16AllocationRecordESaIvELN9__gnu_cxx12_Lock_policyE2EED2Ev
000000000000efb0 W _ZNSt23_Sp_counted_ptr_inplaceIN3aec18RegistrationRecordESaIvELN9__gnu_cxx12_Lock_policyE2EE10_M_destroyEv
000000000000ef90 W _ZNSt23_Sp_counted_ptr_inplaceIN3aec18RegistrationRecordESaIvELN9__gnu_cxx12_Lock_policyE2EE10_M_disposeEv
000000000000f060 W _ZNSt23_Sp_counted_ptr_inplaceIN3aec18RegistrationRecordESaIvELN9__gnu_cxx12_Lock_policyE2EE14_M_get_deleterERKSt9type_info
000000000000efa0 W _ZNSt23_Sp_counted_ptr_inplaceIN3aec18RegistrationRecordESaIvELN9__gnu_cxx12_Lock_policyE2EED0Ev
000000000000ef80 W _ZNSt23_Sp_counted_ptr_inplaceIN3aec18RegistrationRecordESaIvELN9__gnu_cxx12_Lock_policyE2EED1Ev
000000000000ef80 W _ZNSt23_Sp_counted_ptr_inplaceIN3aec18RegistrationRecordESaIvELN9__gnu_cxx12_Lock_policyE2EED2Ev
0000000000010b40 W _ZNSt5dequeISt8functionIF8aecErrormEESaIS3_EED1Ev
0000000000010b40 W _ZNSt5dequeISt8functionIF8aecErrormEESaIS3_EED2Ev
0000000000010b30 W _ZNSt6thread24_M_thread_deps_never_runEv
000000000000b880 W _ZNSt6vectorISt10unique_ptrI14aecEventOpaqueSt14default_deleteIS1_EESaIS4_EE17_M_realloc_insertIJS4_EEEvN9__gnu_cxx17__normal_iteratorIPS4_S6_EEDpOT_
0000000000010cf0 W _ZNSt6vectorISt10unique_ptrI15aecStreamOpaqueSt14default_deleteIS1_EESaIS4_EE17_M_realloc_insertIJS4_EEEvN9__gnu_cxx17__normal_iteratorIPS4_S6_EEDpOT_
0000000000008a50 W _ZNSt8_Rb_treeImSt4pairIKmSt10shared_ptrIN3aec16AllocationRecordEEESt10_Select1stIS6_ESt4lessImESaIS6_EE22_M_emplace_hint_uniqueIJRmS5_EEESt17_Rb_tree_iteratorIS6_ESt23_Rb_tree_const_iteratorIS6_EDpOT_
000000000000f0b0 W _ZNSt8_Rb_treeImSt4pairIKmSt10shared_ptrIN3aec18RegistrationRecordEEESt10_Select1stIS6_ESt4lessImESaIS6_EE22_M_emplace_hint_uniqueIJRS1_S5_EEESt17_Rb_tree_iteratorIS6_ESt23_Rb_tree_const_iteratorIS6_EDpOT_
0000000000015bb8 V _ZTISt11_Mutex_baseILN9__gnu_cxx12_Lock_policyE2EE
0000000000015bc8 V _ZTISt16_Sp_counted_baseILN9__gnu_cxx12_Lock_policyE2EE
0000000000015be0 V _ZTISt23_Sp_counted_ptr_inplaceIN3aec16AllocationRecordESaIvELN9__gnu_cxx12_Lock_policyE2EE
0000000000015cf8 V _ZTISt23_Sp_counted_ptr_inplaceIN3aec18RegistrationRecordESaIvELN9__gnu_cxx12_Lock_policyE2EE
0000000000011020 V _ZTSSt11_Mutex_baseILN9__gnu_cxx12_Lock_policyE2EE
0000000000011080 V _ZTSSt16_Sp_counted_baseILN9__gnu_cxx12_Lock_policyE2EE
0000000000011050 V _ZTSSt19_Sp_make_shared_tag
00000000000110c0 V _ZTSSt23_Sp_counted_ptr_inplaceIN3aec16AllocationRecordESaIvELN9__gnu_cxx12_Lock_policyE2EE
0000000000011740 V _ZTSSt23_Sp_counted_ptr_inplaceIN3aec18RegistrationRecordESaIvELN9__gnu_cxx12_Lock_policyE2EE
0000000000015bf8 V _ZTVSt23_Sp_counted_ptr_inplaceIN3aec16AllocationRecordESaIvELN9__gnu_cxx12_Lock_policyE2EE
0000000000015d10 V _ZTVSt23_Sp_counted_ptr_inplaceIN3aec18RegistrationRecordESaIvELN9__gnu_cxx12_Lock_policyE2EE
0000000000011118 u _ZZNSt19_Sp_make_shared_tag5_S_tiEvE5__tag
0000000000006db0 T aecAlloc
0000000000007470 T aecAxpy
0000000000006e70 T aecCopyAsync
0000000000006e40 T aecCopyD2H
0000000000006e10 T aecCopyH2D
0000000000006bd0 T aecDeviceCount
0000000000006c70 T aecDeviceInfo
00000000000074a0 T aecDot
0000000000006f30 T aecEventCreate
0000000000006f60 T aecEventDestroy
0000000000007020 T aecEventElapsedCycles
0000000000006ff0 T aecEventQuery
0000000000006f90 T aecEventRecord
0000000000006fc0 T aecEventSynchronize
0000000000006de0 T aecFree
0000000000006da0 T aecGetErrorName
0000000000006d80 T aecGetLastError
00000000000070b0 T aecGetRuntimeStats
0000000000007050 T aecHostRegister
0000000000007080 T aecHostUnregister
00000000000071c0 T aecLaunch
00000000000072f0 T aecMatmulBF16
00000000000072b0 T aecMatmulF16
0000000000007330 T aecMatmulF32
0000000000007200 T aecMatmulF4
0000000000007370 T aecMatmulF64
0000000000007240 T aecMatmulF8
0000000000007430 T aecMatmulI32
00000000000073b0 T aecMatmulI4
00000000000073f0 T aecMatmulI8
00000000000074d0 T aecNrm2
0000000000006d90 T aecPeekAtLastError
0000000000007190 T aecResetRuntimeStats
0000000000006ea0 T aecStreamCreate
0000000000006ed0 T aecStreamDestroy
0000000000006f00 T aecStreamSync
